; Function Attrs: nounwind uwtable
define internal void @evp_kem_free(ptr noundef %0) #0 {
  %2 = icmp eq ptr %0, null
  br i1 %2, label %EVP_KEM_free.exit, label %3

3:                                                ; preds = %1
  %4 = getelementptr inbounds nuw i8, ptr %0, i64 32
  %5 = atomicrmw sub ptr %4, i32 1 release, align 4
  %6 = icmp eq i32 %5, 1
  br i1 %6, label %CRYPTO_DOWN_REF.exit.thread.i, label %CRYPTO_DOWN_REF.exit.i

CRYPTO_DOWN_REF.exit.thread.i:                    ; preds = %3
  fence acquire
  br label %8

CRYPTO_DOWN_REF.exit.i:                           ; preds = %3
  %7 = icmp sgt i32 %5, 1
  br i1 %7, label %EVP_KEM_free.exit, label %8

8:                                                ; preds = %CRYPTO_DOWN_REF.exit.i, %CRYPTO_DOWN_REF.exit.thread.i
  %9 = getelementptr inbounds nuw i8, ptr %0, i64 8
  %10 = load ptr, ptr %9, align 8, !tbaa !34
  tail call void @CRYPTO_free(ptr noundef %10, ptr noundef nonnull @.str, i32 noundef 441) #5
  %11 = getelementptr inbounds nuw i8, ptr %0, i64 24
  %12 = load ptr, ptr %11, align 8, !tbaa !37
  tail call void @ossl_provider_free(ptr noundef %12) #5
  tail call void @CRYPTO_free(ptr noundef nonnull %0, ptr noundef nonnull @.str, i32 noundef 444) #5
  br label %EVP_KEM_free.exit

EVP_KEM_free.exit:                                ; preds = %1, %CRYPTO_DOWN_REF.exit.i, %8
  ret void
}